; ModuleID = 'source-C-CXX/2/2868.c'
source_filename = "source-C-CXX/2/2868.c"
target datalayout = "e-m:e-p270:32:32-p271:32:32-p272:64:64-i64:64-f80:128-n8:16:32:64-S128"
target triple = "x86_64-pc-linux-gnu"

@.str = private unnamed_addr constant [5 x i8] c"%d%d\00", align 1
@.str.1 = private unnamed_addr constant [3 x i8] c"%d\00", align 1
@str = private unnamed_addr constant [3 x i8] c"no\00", align 1
@str.4 = private unnamed_addr constant [4 x i8] c"yes\00", align 1

; Function Attrs: nofree nounwind sspstrong uwtable
define dso_local i32 @main() local_unnamed_addr #0 {
  %1 = alloca i32, align 4
  %2 = alloca i32, align 4
  %3 = alloca [1010 x i32], align 16
  %4 = alloca i32, align 4
  %5 = bitcast i32* %1 to i8*
  call void @llvm.lifetime.start.p0i8(i64 4, i8* nonnull %5) #4
  %6 = bitcast i32* %2 to i8*
  call void @llvm.lifetime.start.p0i8(i64 4, i8* nonnull %6) #4
  %7 = bitcast [1010 x i32]* %3 to i8*
  call void @llvm.lifetime.start.p0i8(i64 4040, i8* nonnull %7) #4
  %8 = bitcast i32* %4 to i8*
  call void @llvm.lifetime.start.p0i8(i64 4, i8* nonnull %8) #4
  %9 = call i32 (i8*, ...) @__isoc99_scanf(i8* getelementptr inbounds ([5 x i8], [5 x i8]* @.str, i64 0, i64 0), i32* nonnull %1, i32* nonnull %2)
  %10 = load i32, i32* %1, align 4, !tbaa !5
  %11 = icmp sgt i32 %10, 0
  br i1 %11, label %18, label %55

12:                                               ; preds = %29
  %13 = icmp sgt i32 %30, 1
  br i1 %13, label %14, label %55

14:                                               ; preds = %12
  %15 = add nsw i32 %30, -1
  %16 = zext i32 %15 to i64
  %17 = zext i32 %30 to i64
  br label %38

18:                                               ; preds = %0, %29
  %19 = phi i32 [ %30, %29 ], [ 0, %0 ]
  %20 = phi i32 [ %31, %29 ], [ 0, %0 ]
  %21 = call i32 (i8*, ...) @__isoc99_scanf(i8* getelementptr inbounds ([3 x i8], [3 x i8]* @.str.1, i64 0, i64 0), i32* nonnull %4)
  %22 = load i32, i32* %4, align 4, !tbaa !5
  %23 = load i32, i32* %2, align 4, !tbaa !5
  %24 = icmp slt i32 %22, %23
  br i1 %24, label %25, label %29

25:                                               ; preds = %18
  %26 = sext i32 %19 to i64
  %27 = getelementptr inbounds [1010 x i32], [1010 x i32]* %3, i64 0, i64 %26
  store i32 %22, i32* %27, align 4, !tbaa !5
  %28 = add nsw i32 %19, 1
  br label %29

29:                                               ; preds = %18, %25
  %30 = phi i32 [ %28, %25 ], [ %19, %18 ]
  %31 = add nuw nsw i32 %20, 1
  %32 = load i32, i32* %1, align 4, !tbaa !5
  %33 = icmp slt i32 %31, %32
  br i1 %33, label %18, label %12, !llvm.loop !9

34:                                               ; preds = %52
  %35 = trunc i64 %40 to i32
  store i32 %35, i32* %4, align 4, !tbaa !5
  %36 = icmp sgt i64 %39, 2
  %37 = add nsw i64 %40, -1
  br i1 %36, label %38, label %55, !llvm.loop !11

38:                                               ; preds = %34, %14
  %39 = phi i64 [ %17, %14 ], [ %41, %34 ]
  %40 = phi i64 [ %16, %14 ], [ %37, %34 ]
  %41 = add nsw i64 %39, -1
  %42 = getelementptr inbounds [1010 x i32], [1010 x i32]* %3, i64 0, i64 %41
  %43 = load i32, i32* %42, align 4, !tbaa !5
  %44 = sub nsw i32 %23, %43
  br label %45

45:                                               ; preds = %38, %52
  %46 = phi i64 [ 0, %38 ], [ %53, %52 ]
  %47 = getelementptr inbounds [1010 x i32], [1010 x i32]* %3, i64 0, i64 %46
  %48 = load i32, i32* %47, align 4, !tbaa !5
  %49 = icmp eq i32 %48, %44
  br i1 %49, label %50, label %52

50:                                               ; preds = %45
  %51 = trunc i64 %46 to i32
  store i32 %51, i32* %4, align 4, !tbaa !5
  br label %55

52:                                               ; preds = %45
  %53 = add nuw nsw i64 %46, 1
  %54 = icmp eq i64 %53, %40
  br i1 %54, label %34, label %45, !llvm.loop !12

55:                                               ; preds = %34, %12, %0, %50
  %56 = phi i8* [ getelementptr inbounds ([4 x i8], [4 x i8]* @str.4, i64 0, i64 0), %50 ], [ getelementptr inbounds ([3 x i8], [3 x i8]* @str, i64 0, i64 0), %0 ], [ getelementptr inbounds ([3 x i8], [3 x i8]* @str, i64 0, i64 0), %12 ], [ getelementptr inbounds ([3 x i8], [3 x i8]* @str, i64 0, i64 0), %34 ]
  %57 = call i32 @puts(i8* nonnull dereferenceable(1) %56)
  call void @llvm.lifetime.end.p0i8(i64 4, i8* nonnull %8) #4
  call void @llvm.lifetime.end.p0i8(i64 4040, i8* nonnull %7) #4
  call void @llvm.lifetime.end.p0i8(i64 4, i8* nonnull %6) #4
  call void @llvm.lifetime.end.p0i8(i64 4, i8* nonnull %5) #4
  ret i32 0
}

; Function Attrs: argmemonly mustprogress nofree nosync nounwind willreturn
declare void @llvm.lifetime.start.p0i8(i64 immarg, i8* nocapture) #1

; Function Attrs: nofree nounwind
declare noundef i32 @__isoc99_scanf(i8* nocapture noundef readonly, ...) local_unnamed_addr #2

; Function Attrs: argmemonly mustprogress nofree nosync nounwind willreturn
declare void @llvm.lifetime.end.p0i8(i64 immarg, i8* nocapture) #1

; Function Attrs: nofree nounwind
declare noundef i32 @puts(i8* nocapture noundef readonly) local_unnamed_addr #3


!llvm.module.flags = !{!0, !1, !2, !3}
!llvm.ident = !{!4}

!0 = !{i32 1, !"wchar_size", i32 4}
!1 = !{i32 7, !"PIC Level", i32 2}
!2 = !{i32 7, !"PIE Level", i32 2}
!3 = !{i32 7, !"uwtable", i32 1}
!4 = !{!"clang version 13.0.0"}
!5 = !{!6, !6, i64 0}
!6 = !{!"int", !7, i64 0}
!7 = !{!"omnipotent char", !8, i64 0}
!8 = !{!"Simple C/C++ TBAA"}
!9 = distinct !{!9, !10}
!10 = !{!"llvm.loop.mustprogress"}
!11 = distinct !{!11, !10}
!12 = distinct !{!12, !10}
